target datalayout = "e-m:e-p270:32:32-p271:32:32-p272:64:64-i64:64-i128:128-f80:128-n8:16:32:64-S128"
target triple = "x86_64-pc-linux-gnu"

%struct.function_st = type { i32, ptr, ptr, ptr, ptr, ptr }
%struct.args_st = type { i32, i32, ptr }

@default_config_file = dso_local global ptr null, align 8
@bio_in = dso_local global ptr null, align 8
@bio_out = dso_local global ptr null, align 8
@bio_err = dso_local global ptr null, align 8
@.str = private unnamed_addr constant [13 x i8] c"apps_startup\00", align 1
@.str.1 = private unnamed_addr constant [10 x i8] c"prog_init\00", align 1
@.str.2 = private unnamed_addr constant [48 x i8] c"FATAL: Startup failure (dev note: %s()) for %s\0A\00", align 1
@.str.3 = private unnamed_addr constant [39 x i8] c"%s: could not get default config file\0A\00", align 1
@.str.4 = private unnamed_addr constant [6 x i8] c"-help\00", align 1
@.str.5 = private unnamed_addr constant [7 x i8] c"--help\00", align 1
@.str.6 = private unnamed_addr constant [3 x i8] c"-h\00", align 1
@.str.7 = private unnamed_addr constant [4 x i8] c"--h\00", align 1
@.str.8 = private unnamed_addr constant [9 x i8] c"-version\00", align 1
@.str.9 = private unnamed_addr constant [10 x i8] c"--version\00", align 1
@.str.10 = private unnamed_addr constant [3 x i8] c"-v\00", align 1
@.str.11 = private unnamed_addr constant [4 x i8] c"--v\00", align 1
@.str.12 = private unnamed_addr constant [5 x i8] c"help\00", align 1
@.str.13 = private unnamed_addr constant [8 x i8] c"version\00", align 1
@help_argv = internal global [2 x ptr] [ptr @.str.12, ptr null], align 16
@version_argv = internal global [2 x ptr] [ptr @.str.13, ptr null], align 16
@.str.14 = private unnamed_addr constant [26 x i8] c"../openssl/apps/openssl.c\00", align 1
@.str.29 = private unnamed_addr constant [20 x i8] c"OPENSSL_TEST_LIBCTX\00", align 1
@.str.30 = private unnamed_addr constant [2 x i8] c"1\00", align 1

; Function Attrs: inlinehint nounwind uwtable
define internal ptr @lh_FUNCTION_retrieve(ptr noundef %0, ptr noundef %1) #3 {
  %3 = alloca ptr, align 8
  %4 = alloca ptr, align 8
  store ptr %0, ptr %3, align 8, !tbaa !11
  store ptr %1, ptr %4, align 8, !tbaa !23
  %5 = load ptr, ptr %3, align 8, !tbaa !11
  %6 = load ptr, ptr %4, align 8, !tbaa !23
  %7 = call ptr @OPENSSL_LH_retrieve(ptr noundef %5, ptr noundef %6)
  ret ptr %7
}

; Function Attrs: nounwind uwtable
define internal i32 @apps_startup() #0 {
  %1 = alloca i32, align 4
  %2 = alloca ptr, align 8
  %3 = alloca i32, align 4
  call void @llvm.lifetime.start.p0(i64 8, ptr %2) #8
  store ptr null, ptr %2, align 8, !tbaa !18
  %4 = call ptr @signal(i32 noundef 13, ptr noundef inttoptr (i64 1 to ptr)) #8
  %5 = call i32 @OPENSSL_init_ssl(i64 noundef 30272, ptr noundef null)
  %6 = icmp ne i32 %5, 0
  br i1 %6, label %8, label %7

7:                                                ; preds = %0
  store i32 0, ptr %1, align 4
  store i32 1, ptr %3, align 4
  br label %25

8:                                                ; preds = %0
  %9 = call i32 @setup_ui_method()
  %10 = call i32 @setup_engine_loader()
  %11 = call ptr @getenv(ptr noundef @.str.29) #8
  store ptr %11, ptr %2, align 8, !tbaa !18
  %12 = load ptr, ptr %2, align 8, !tbaa !18
  %13 = icmp ne ptr %12, null
  br i1 %13, label %14, label %24

14:                                               ; preds = %8
  %15 = load ptr, ptr %2, align 8, !tbaa !18
  %16 = call i32 @strcmp(ptr noundef %15, ptr noundef @.str.30) #9
  %17 = icmp eq i32 %16, 0
  br i1 %17, label %18, label %23

18:                                               ; preds = %14
  %19 = call ptr @app_create_libctx()
  %20 = icmp eq ptr %19, null
  br i1 %20, label %21, label %22

21:                                               ; preds = %18
  store i32 0, ptr %1, align 4
  store i32 1, ptr %3, align 4
  br label %25

22:                                               ; preds = %18
  br label %23

23:                                               ; preds = %22, %14
  br label %24

24:                                               ; preds = %23, %8
  store i32 1, ptr %1, align 4
  store i32 1, ptr %3, align 4
  br label %25

25:                                               ; preds = %24, %21, %7
  call void @llvm.lifetime.end.p0(i64 8, ptr %2) #8
  %26 = load i32, ptr %1, align 4
  ret i32 %26
}

; Function Attrs: nounwind uwtable
define dso_local i32 @main(i32 noundef %0, ptr noundef %1) #0 {
  %3 = alloca i32, align 4
  %4 = alloca i32, align 4
  %5 = alloca ptr, align 8
  %6 = alloca %struct.function_st, align 8
  %7 = alloca ptr, align 8
  %8 = alloca ptr, align 8
  %9 = alloca ptr, align 8
  %10 = alloca ptr, align 8
  %11 = alloca %struct.args_st, align 8
  %12 = alloca i32, align 4
  %13 = alloca i32, align 4
  %14 = alloca i32, align 4
  store i32 0, ptr %3, align 4
  store i32 %0, ptr %4, align 4, !tbaa !4
  store ptr %1, ptr %5, align 8, !tbaa !8
  call void @llvm.lifetime.start.p0(i64 48, ptr %6) #8
  call void @llvm.lifetime.start.p0(i64 8, ptr %7) #8
  call void @llvm.lifetime.start.p0(i64 8, ptr %8) #8
  store ptr null, ptr %8, align 8, !tbaa !11
  call void @llvm.lifetime.start.p0(i64 8, ptr %9) #8
  call void @llvm.lifetime.start.p0(i64 8, ptr %10) #8
  call void @llvm.lifetime.start.p0(i64 16, ptr %11) #8
  call void @llvm.lifetime.start.p0(i64 4, ptr %12) #8
  store i32 0, ptr %12, align 4, !tbaa !4
  call void @llvm.lifetime.start.p0(i64 4, ptr %13) #8
  store i32 0, ptr %13, align 4, !tbaa !4
  call void @llvm.lifetime.start.p0(i64 4, ptr %14) #8
  store i32 0, ptr %14, align 4, !tbaa !4
  %15 = getelementptr inbounds nuw %struct.args_st, ptr %11, i32 0, i32 2
  store ptr null, ptr %15, align 8, !tbaa !13
  %16 = getelementptr inbounds nuw %struct.args_st, ptr %11, i32 0, i32 0
  store i32 0, ptr %16, align 8, !tbaa !15
  %17 = call ptr @dup_bio_in(i32 noundef 32769)
  store ptr %17, ptr @bio_in, align 8, !tbaa !16
  %18 = call ptr @dup_bio_out(i32 noundef 32769)
  store ptr %18, ptr @bio_out, align 8, !tbaa !16
  %19 = call ptr @dup_bio_err(i32 noundef 32769)
  store ptr %19, ptr @bio_err, align 8, !tbaa !16
  store ptr @.str, ptr %10, align 8, !tbaa !18
  %20 = call i32 @apps_startup()
  %21 = icmp ne i32 %20, 0
  %22 = xor i1 %21, true
  br i1 %22, label %26, label %23

23:                                               ; preds = %2
  store ptr @.str.1, ptr %10, align 8, !tbaa !18
  %24 = call ptr @prog_init()
  store ptr %24, ptr %8, align 8, !tbaa !11
  %25 = icmp eq ptr %24, null
  br i1 %25, label %26, label %34

26:                                               ; preds = %23, %2
  %27 = load ptr, ptr @bio_err, align 8, !tbaa !16
  %28 = load ptr, ptr %10, align 8, !tbaa !18
  %29 = load ptr, ptr %5, align 8, !tbaa !8
  %30 = getelementptr inbounds ptr, ptr %29, i64 0
  %31 = load ptr, ptr %30, align 8, !tbaa !18
  %32 = call i32 (ptr, ptr, ...) @BIO_printf(ptr noundef %27, ptr noundef @.str.2, ptr noundef %28, ptr noundef %31)
  %33 = load ptr, ptr @bio_err, align 8, !tbaa !16
  call void @ERR_print_errors(ptr noundef %33)
  store i32 1, ptr %14, align 4, !tbaa !4
  br label %165

34:                                               ; preds = %23
  %35 = load ptr, ptr %5, align 8, !tbaa !8
  %36 = getelementptr inbounds ptr, ptr %35, i64 0
  %37 = load ptr, ptr %36, align 8, !tbaa !18
  %38 = call ptr @opt_progname(ptr noundef %37)
  store ptr %38, ptr %9, align 8, !tbaa !18
  %39 = call ptr @CONF_get1_default_config_file()
  store ptr %39, ptr @default_config_file, align 8, !tbaa !18
  %40 = load ptr, ptr @default_config_file, align 8, !tbaa !18
  %41 = icmp eq ptr %40, null
  br i1 %41, label %42, label %44

42:                                               ; preds = %34
  %43 = load ptr, ptr %9, align 8, !tbaa !18
  call void (ptr, ...) @app_bail_out(ptr noundef @.str.3, ptr noundef %43)
  br label %44

44:                                               ; preds = %42, %34
  %45 = load ptr, ptr %9, align 8, !tbaa !18
  %46 = getelementptr inbounds nuw %struct.function_st, ptr %6, i32 0, i32 1
  store ptr %45, ptr %46, align 8, !tbaa !20
  %47 = load ptr, ptr %8, align 8, !tbaa !11
  %48 = call ptr @lh_FUNCTION_retrieve(ptr noundef %47, ptr noundef %6)
  store ptr %48, ptr %7, align 8, !tbaa !23
  %49 = load ptr, ptr %7, align 8, !tbaa !23
  %50 = icmp eq ptr %49, null
  br i1 %50, label %51, label %137

51:                                               ; preds = %44
  %52 = load i32, ptr %4, align 4, !tbaa !4
  %53 = icmp sgt i32 %52, 1
  br i1 %53, label %54, label %80

54:                                               ; preds = %51
  %55 = load ptr, ptr %5, align 8, !tbaa !8
  %56 = getelementptr inbounds ptr, ptr %55, i64 1
  %57 = load ptr, ptr %56, align 8, !tbaa !18
  %58 = call i32 @strcmp(ptr noundef %57, ptr noundef @.str.4) #9
  %59 = icmp eq i32 %58, 0
  br i1 %59, label %78, label %60

60:                                               ; preds = %54
  %61 = load ptr, ptr %5, align 8, !tbaa !8
  %62 = getelementptr inbounds ptr, ptr %61, i64 1
  %63 = load ptr, ptr %62, align 8, !tbaa !18
  %64 = call i32 @strcmp(ptr noundef %63, ptr noundef @.str.5) #9
  %65 = icmp eq i32 %64, 0
  br i1 %65, label %78, label %66

66:                                               ; preds = %60
  %67 = load ptr, ptr %5, align 8, !tbaa !8
  %68 = getelementptr inbounds ptr, ptr %67, i64 1
  %69 = load ptr, ptr %68, align 8, !tbaa !18
  %70 = call i32 @strcmp(ptr noundef %69, ptr noundef @.str.6) #9
  %71 = icmp eq i32 %70, 0
  br i1 %71, label %78, label %72

72:                                               ; preds = %66
  %73 = load ptr, ptr %5, align 8, !tbaa !8
  %74 = getelementptr inbounds ptr, ptr %73, i64 1
  %75 = load ptr, ptr %74, align 8, !tbaa !18
  %76 = call i32 @strcmp(ptr noundef %75, ptr noundef @.str.7) #9
  %77 = icmp eq i32 %76, 0
  br label %78

78:                                               ; preds = %72, %66, %60, %54
  %79 = phi i1 [ true, %66 ], [ true, %60 ], [ true, %54 ], [ %77, %72 ]
  br label %80

80:                                               ; preds = %78, %51
  %81 = phi i1 [ false, %51 ], [ %79, %78 ]
  %82 = zext i1 %81 to i32
  store i32 %82, ptr %12, align 4, !tbaa !4
  %83 = load i32, ptr %4, align 4, !tbaa !4
  %84 = icmp sgt i32 %83, 1
  br i1 %84, label %85, label %111

85:                                               ; preds = %80
  %86 = load ptr, ptr %5, align 8, !tbaa !8
  %87 = getelementptr inbounds ptr, ptr %86, i64 1
  %88 = load ptr, ptr %87, align 8, !tbaa !18
  %89 = call i32 @strcmp(ptr noundef %88, ptr noundef @.str.8) #9
  %90 = icmp eq i32 %89, 0
  br i1 %90, label %109, label %91

91:                                               ; preds = %85
  %92 = load ptr, ptr %5, align 8, !tbaa !8
  %93 = getelementptr inbounds ptr, ptr %92, i64 1
  %94 = load ptr, ptr %93, align 8, !tbaa !18
  %95 = call i32 @strcmp(ptr noundef %94, ptr noundef @.str.9) #9
  %96 = icmp eq i32 %95, 0
  br i1 %96, label %109, label %97

97:                                               ; preds = %91
  %98 = load ptr, ptr %5, align 8, !tbaa !8
  %99 = getelementptr inbounds ptr, ptr %98, i64 1
  %100 = load ptr, ptr %99, align 8, !tbaa !18
  %101 = call i32 @strcmp(ptr noundef %100, ptr noundef @.str.10) #9
  %102 = icmp eq i32 %101, 0
  br i1 %102, label %109, label %103

103:                                              ; preds = %97
  %104 = load ptr, ptr %5, align 8, !tbaa !8
  %105 = getelementptr inbounds ptr, ptr %104, i64 1
  %106 = load ptr, ptr %105, align 8, !tbaa !18
  %107 = call i32 @strcmp(ptr noundef %106, ptr noundef @.str.11) #9
  %108 = icmp eq i32 %107, 0
  br label %109

109:                                              ; preds = %103, %97, %91, %85
  %110 = phi i1 [ true, %97 ], [ true, %91 ], [ true, %85 ], [ %108, %103 ]
  br label %111

111:                                              ; preds = %109, %80
  %112 = phi i1 [ false, %80 ], [ %110, %109 ]
  %113 = zext i1 %112 to i32
  store i32 %113, ptr %13, align 4, !tbaa !4
  %114 = load i32, ptr %4, align 4, !tbaa !4
  %115 = add nsw i32 %114, -1
  store i32 %115, ptr %4, align 4, !tbaa !4
  %116 = load ptr, ptr %5, align 8, !tbaa !8
  %117 = getelementptr inbounds nuw ptr, ptr %116, i32 1
  store ptr %117, ptr %5, align 8, !tbaa !8
  %118 = load i32, ptr %4, align 4, !tbaa !4
  %119 = icmp eq i32 %118, 1
  br i1 %119, label %123, label %120

120:                                              ; preds = %111
  %121 = load i32, ptr %12, align 4, !tbaa !4
  %122 = icmp ne i32 %121, 0
  br i1 %122, label %123, label %124

123:                                              ; preds = %120, %111
  br label %134

124:                                              ; preds = %120
  %125 = load i32, ptr %13, align 4, !tbaa !4
  %126 = icmp ne i32 %125, 0
  br i1 %126, label %127, label %128

127:                                              ; preds = %124
  br label %132

128:                                              ; preds = %124
  %129 = load ptr, ptr %5, align 8, !tbaa !8
  %130 = getelementptr inbounds ptr, ptr %129, i64 0
  %131 = load ptr, ptr %130, align 8, !tbaa !18
  br label %132

132:                                              ; preds = %128, %127
  %133 = phi ptr [ @.str.13, %127 ], [ %131, %128 ]
  br label %134

134:                                              ; preds = %132, %123
  %135 = phi ptr [ @.str.12, %123 ], [ %133, %132 ]
  %136 = call ptr @opt_appname(ptr noundef %135)
  br label %141

137:                                              ; preds = %44
  %138 = load ptr, ptr %9, align 8, !tbaa !18
  %139 = load ptr, ptr %5, align 8, !tbaa !8
  %140 = getelementptr inbounds ptr, ptr %139, i64 0
  store ptr %138, ptr %140, align 8, !tbaa !18
  br label %141

141:                                              ; preds = %137, %134
  %142 = load i32, ptr %4, align 4, !tbaa !4
  %143 = icmp eq i32 %142, 0
  br i1 %143, label %147, label %144

144:                                              ; preds = %141
  %145 = load i32, ptr %12, align 4, !tbaa !4
  %146 = icmp ne i32 %145, 0
  br i1 %146, label %147, label %150

147:                                              ; preds = %144, %141
  %148 = load ptr, ptr %8, align 8, !tbaa !11
  %149 = call i32 @do_cmd(ptr noundef %148, i32 noundef 1, ptr noundef @help_argv)
  br label %163

150:                                              ; preds = %144
  %151 = load i32, ptr %13, align 4, !tbaa !4
  %152 = icmp ne i32 %151, 0
  br i1 %152, label %153, label %156

153:                                              ; preds = %150
  %154 = load ptr, ptr %8, align 8, !tbaa !11
  %155 = call i32 @do_cmd(ptr noundef %154, i32 noundef 1, ptr noundef @version_argv)
  br label %161

156:                                              ; preds = %150
  %157 = load ptr, ptr %8, align 8, !tbaa !11
  %158 = load i32, ptr %4, align 4, !tbaa !4
  %159 = load ptr, ptr %5, align 8, !tbaa !8
  %160 = call i32 @do_cmd(ptr noundef %157, i32 noundef %158, ptr noundef %159)
  br label %161

161:                                              ; preds = %156, %153
  %162 = phi i32 [ %155, %153 ], [ %160, %156 ]
  br label %163

163:                                              ; preds = %161, %147
  %164 = phi i32 [ %149, %147 ], [ %162, %161 ]
  store i32 %164, ptr %14, align 4, !tbaa !4
  br label %165

165:                                              ; preds = %163, %26
  %166 = load ptr, ptr @default_config_file, align 8, !tbaa !18
  call void @CRYPTO_free(ptr noundef %166, ptr noundef @.str.14, i32 noundef 312)
  %167 = load ptr, ptr %8, align 8, !tbaa !11
  call void @lh_FUNCTION_free(ptr noundef %167)
  %168 = getelementptr inbounds nuw %struct.args_st, ptr %11, i32 0, i32 2
  %169 = load ptr, ptr %168, align 8, !tbaa !13
  call void @CRYPTO_free(ptr noundef %169, ptr noundef @.str.14, i32 noundef 314)
  %170 = call i32 @app_RAND_write()
  %171 = icmp ne i32 %170, 0
  br i1 %171, label %173, label %172

172:                                              ; preds = %165
  store i32 1, ptr %14, align 4, !tbaa !4
  br label %173

173:                                              ; preds = %172, %165
  %174 = load ptr, ptr @bio_in, align 8, !tbaa !16
  %175 = call i32 @BIO_free(ptr noundef %174)
  %176 = load ptr, ptr @bio_out, align 8, !tbaa !16
  call void @BIO_free_all(ptr noundef %176)
  call void @apps_shutdown()
  %177 = load ptr, ptr @bio_err, align 8, !tbaa !16
  call void @BIO_free_all(ptr noundef %177)
  %178 = load i32, ptr %14, align 4, !tbaa !4
  call void @exit(i32 noundef %178) #10
  unreachable
}