; Function Attrs: noreturn nounwind uwtable
define dso_local noundef i32 @main(i32 noundef %0, ptr noundef %1) local_unnamed_addr #0 {
  %3 = alloca %struct.function_st, align 8
  call void @llvm.lifetime.start.p0(i64 48, ptr nonnull %3) #12
  %4 = tail call ptr @dup_bio_in(i32 noundef 32769) #12
  store ptr %4, ptr @bio_in, align 8, !tbaa !4
  %5 = tail call ptr @dup_bio_out(i32 noundef 32769) #12
  store ptr %5, ptr @bio_out, align 8, !tbaa !4
  %6 = tail call ptr @dup_bio_err(i32 noundef 32769) #12
  store ptr %6, ptr @bio_err, align 8, !tbaa !4
  %7 = tail call ptr @signal(i32 noundef 13, ptr noundef nonnull inttoptr (i64 1 to ptr)) #12
  %8 = tail call i32 @OPENSSL_init_ssl(i64 noundef 30272, ptr noundef null) #12
  %.not.i = icmp eq i32 %8, 0
  br i1 %.not.i, label %apps_startup.exit.thread, label %9

9:                                                ; preds = %2
  %10 = tail call i32 @setup_ui_method() #12
  %11 = tail call i32 @setup_engine_loader() #12
  %12 = tail call ptr @getenv(ptr noundef nonnull @.str.29) #12
  %.not3.i = icmp eq ptr %12, null
  br i1 %.not3.i, label %apps_startup.exit, label %sub_0.i

sub_0.i:                                          ; preds = %9
  %13 = load i8, ptr %12, align 1
  %.not4.i = icmp eq i8 %13, 49
  br i1 %.not4.i, label %.tail.i, label %apps_startup.exit

.tail.i:                                          ; preds = %sub_0.i
  %14 = getelementptr inbounds nuw i8, ptr %12, i64 1
  %15 = load i8, ptr %14, align 1
  %16 = icmp eq i8 %15, 0
  br i1 %16, label %17, label %apps_startup.exit

17:                                               ; preds = %.tail.i
  %18 = tail call ptr @app_create_libctx() #12
  %19 = icmp eq ptr %18, null
  br i1 %19, label %apps_startup.exit.thread, label %apps_startup.exit

apps_startup.exit:                                ; preds = %17, %.tail.i, %sub_0.i, %9
  %20 = tail call fastcc ptr @prog_init()
  %21 = icmp eq ptr %20, null
  br i1 %21, label %apps_startup.exit.thread, label %26

apps_startup.exit.thread:                         ; preds = %17, %2, %apps_startup.exit
  %.044 = phi ptr [ @.str.1, %apps_startup.exit ], [ @.str, %2 ], [ @.str, %17 ]
  %22 = load ptr, ptr @bio_err, align 8, !tbaa !4
  %23 = load ptr, ptr %1, align 8, !tbaa !9
  %24 = tail call i32 (ptr, ptr, ...) @BIO_printf(ptr noundef %22, ptr noundef nonnull @.str.2, ptr noundef nonnull %.044, ptr noundef %23) #12
  %25 = load ptr, ptr @bio_err, align 8, !tbaa !4
  tail call void @ERR_print_errors(ptr noundef %25) #12
  br label %94

26:                                               ; preds = %apps_startup.exit
  %27 = load ptr, ptr %1, align 8, !tbaa !9
  %28 = tail call ptr @opt_progname(ptr noundef %27) #12
  %29 = tail call ptr @CONF_get1_default_config_file() #12
  store ptr %29, ptr @default_config_file, align 8, !tbaa !9
  %30 = icmp eq ptr %29, null
  br i1 %30, label %31, label %32

31:                                               ; preds = %26
  tail call void (ptr, ...) @app_bail_out(ptr noundef nonnull @.str.3, ptr noundef %28) #12
  br label %32

32:                                               ; preds = %31, %26
  %33 = getelementptr inbounds nuw i8, ptr %3, i64 8
  store ptr %28, ptr %33, align 8, !tbaa !11
  %34 = call ptr @OPENSSL_LH_retrieve(ptr noundef nonnull %20, ptr noundef nonnull %3) #12
  %35 = icmp eq ptr %34, null
  br i1 %35, label %36, label %.thread56

36:                                               ; preds = %32
  %37 = icmp sgt i32 %0, 1
  br i1 %37, label %38, label %70

38:                                               ; preds = %36
  %39 = getelementptr inbounds nuw i8, ptr %1, i64 8
  %40 = load ptr, ptr %39, align 8, !tbaa !9
  %41 = call i32 @strcmp(ptr noundef nonnull dereferenceable(1) %40, ptr noundef nonnull dereferenceable(6) @.str.4) #13
  %42 = icmp eq i32 %41, 0
  br i1 %42, label %54, label %43

43:                                               ; preds = %38
  %44 = call i32 @strcmp(ptr noundef nonnull dereferenceable(1) %40, ptr noundef nonnull dereferenceable(7) @.str.5) #13
  %45 = icmp eq i32 %44, 0
  br i1 %45, label %54, label %sub_0

sub_0:                                            ; preds = %43
  %46 = load i8, ptr %40, align 1
  %.not = icmp eq i8 %46, 45
  br i1 %.not, label %sub_1, label %.tail.thread

sub_1:                                            ; preds = %sub_0
  %47 = getelementptr inbounds nuw i8, ptr %40, i64 1
  %48 = load i8, ptr %47, align 1
  %.not76 = icmp eq i8 %48, 104
  br i1 %.not76, label %.tail, label %.tail.thread

.tail:                                            ; preds = %sub_1
  %49 = getelementptr inbounds nuw i8, ptr %40, i64 2
  %50 = load i8, ptr %49, align 1
  %51 = icmp eq i8 %50, 0
  br i1 %51, label %54, label %.tail.thread

.tail.thread:                                     ; preds = %sub_1, %sub_0, %.tail
  %52 = call i32 @strcmp(ptr noundef nonnull dereferenceable(1) %40, ptr noundef nonnull dereferenceable(4) @.str.7) #13
  %53 = icmp eq i32 %52, 0
  br label %54

54:                                               ; preds = %38, %43, %.tail, %.tail.thread
  %.ph = phi i1 [ %53, %.tail.thread ], [ true, %38 ], [ true, %43 ], [ true, %.tail ]
  %55 = call i32 @strcmp(ptr noundef nonnull dereferenceable(1) %40, ptr noundef nonnull dereferenceable(9) @.str.8) #13
  %56 = icmp eq i32 %55, 0
  br i1 %56, label %.thread52, label %57

57:                                               ; preds = %54
  %58 = call i32 @strcmp(ptr noundef nonnull dereferenceable(1) %40, ptr noundef nonnull dereferenceable(10) @.str.9) #13
  %59 = icmp eq i32 %58, 0
  br i1 %59, label %.thread52, label %sub_072

sub_072:                                          ; preds = %57
  %60 = load i8, ptr %40, align 1
  %.not77 = icmp eq i8 %60, 45
  br i1 %.not77, label %sub_173, label %.tail71.thread

sub_173:                                          ; preds = %sub_072
  %61 = getelementptr inbounds nuw i8, ptr %40, i64 1
  %62 = load i8, ptr %61, align 1
  %.not78 = icmp eq i8 %62, 118
  br i1 %.not78, label %.tail71, label %.tail71.thread

.tail71:                                          ; preds = %sub_173
  %63 = getelementptr inbounds nuw i8, ptr %40, i64 2
  %64 = load i8, ptr %63, align 1
  %65 = icmp eq i8 %64, 0
  br i1 %65, label %.thread52, label %.tail71.thread

.tail71.thread:                                   ; preds = %sub_173, %sub_072, %.tail71
  %66 = call i32 @strcmp(ptr noundef nonnull dereferenceable(1) %40, ptr noundef nonnull dereferenceable(4) @.str.11) #13
  %67 = icmp eq i32 %66, 0
  br label %70

.thread52:                                        ; preds = %.tail71, %57, %54
  %68 = add nsw i32 %0, -1
  %69 = icmp eq i32 %68, 1
  %or.cond53 = select i1 %69, i1 true, i1 %.ph
  %.str.12.mux55 = select i1 %or.cond53, ptr @.str.12, ptr @.str.13
  br label %76

70:                                               ; preds = %36, %.tail71.thread
  %71 = phi i1 [ %.ph, %.tail71.thread ], [ false, %36 ]
  %72 = phi i1 [ %67, %.tail71.thread ], [ false, %36 ]
  %73 = add nsw i32 %0, -1
  %74 = getelementptr inbounds nuw i8, ptr %1, i64 8
  %75 = icmp eq i32 %73, 1
  %or.cond = select i1 %75, i1 true, i1 %71
  %brmerge = select i1 %or.cond, i1 true, i1 %72
  %.str.12.mux = select i1 %or.cond, ptr @.str.12, ptr @.str.13
  br i1 %brmerge, label %76, label %.thread

76:                                               ; preds = %70, %.thread52
  %77 = phi ptr [ %74, %70 ], [ %39, %.thread52 ]
  %78 = phi i32 [ %73, %70 ], [ %68, %.thread52 ]
  %79 = phi i1 [ %72, %70 ], [ true, %.thread52 ]
  %80 = phi i1 [ %71, %70 ], [ %.ph, %.thread52 ]
  %81 = phi ptr [ %.str.12.mux, %70 ], [ %.str.12.mux55, %.thread52 ]
  %82 = call ptr @opt_appname(ptr noundef nonnull %81) #12
  %83 = icmp eq i32 %78, 0
  %or.cond3 = select i1 %83, i1 true, i1 %80
  br i1 %or.cond3, label %88, label %90

.thread:                                          ; preds = %70
  %84 = load ptr, ptr %74, align 8, !tbaa !9
  %85 = call ptr @opt_appname(ptr noundef %84) #12
  %86 = icmp eq i32 %73, 0
  br i1 %86, label %88, label %.thread65

.thread56:                                        ; preds = %32
  store ptr %28, ptr %1, align 8, !tbaa !9
  %87 = icmp eq i32 %0, 0
  br i1 %87, label %88, label %.thread65

88:                                               ; preds = %.thread, %.thread56, %76
  %89 = call fastcc i32 @do_cmd(ptr noundef nonnull %20, i32 noundef 1, ptr noundef nonnull @help_argv)
  br label %94

90:                                               ; preds = %76
  br i1 %79, label %91, label %.thread65

91:                                               ; preds = %90
  %92 = call fastcc i32 @do_cmd(ptr noundef nonnull %20, i32 noundef 1, ptr noundef nonnull @version_argv)
  br label %94

.thread65:                                        ; preds = %.thread, %.thread56, %90
  %.0416270 = phi ptr [ %77, %90 ], [ %1, %.thread56 ], [ %74, %.thread ]
  %.0406369 = phi i32 [ %78, %90 ], [ %0, %.thread56 ], [ %73, %.thread ]
  %93 = call fastcc i32 @do_cmd(ptr noundef nonnull %20, i32 noundef %.0406369, ptr noundef nonnull %.0416270)
  br label %94

94:                                               ; preds = %88, %.thread65, %91, %apps_startup.exit.thread
  %.143 = phi ptr [ null, %apps_startup.exit.thread ], [ %20, %91 ], [ %20, %.thread65 ], [ %20, %88 ]
  %.0 = phi i32 [ 1, %apps_startup.exit.thread ], [ %92, %91 ], [ %93, %.thread65 ], [ %89, %88 ]
  %95 = load ptr, ptr @default_config_file, align 8, !tbaa !9
  call void @CRYPTO_free(ptr noundef %95, ptr noundef nonnull @.str.14, i32 noundef 312) #12
  call fastcc void @lh_FUNCTION_free(ptr noundef %.143)
  call void @CRYPTO_free(ptr noundef null, ptr noundef nonnull @.str.14, i32 noundef 314) #12
  %96 = call i32 @app_RAND_write() #12
  %.not48 = icmp eq i32 %96, 0
  %spec.select = select i1 %.not48, i32 1, i32 %.0
  %97 = load ptr, ptr @bio_in, align 8, !tbaa !4
  %98 = call i32 @BIO_free(ptr noundef %97) #12
  %99 = load ptr, ptr @bio_out, align 8, !tbaa !4
  call void @BIO_free_all(ptr noundef %99) #12
  call fastcc void @apps_shutdown()
  %100 = load ptr, ptr @bio_err, align 8, !tbaa !4
  call void @BIO_free_all(ptr noundef %100) #12
  call void @exit(i32 noundef %spec.select) #14
  unreachable
}